(lp0
(dp1
Vabout
p2
V
p3
sVsolverFlags
p4
(dp5
Vgpus
p6
I0
sVcpus
p7
I2
sVinteractive
p8
NssVsolver
p9
Vdefault
p10
sS'jobName'
p11
VBC104_LoadCase3_30
p12
sVInternalUse
p13
(dp14
Vstatus
p15
S'queue'
p16
sS'failsafe'
p17
I00
sVjsonFileType
p18
Vabaqus
p19
sS'jobDirectory'
p20
V/home/cdavis/Siji
p21
sS'timeSubmitted'
p22
S'January 09 - 14:48 PM'
p23
sVjsonFileVersion
p24
Vabq0.1
p25
sS'jobID'
p26
I2913
sS'jobFile'
p27
V/home/cdavis/Siji/BC104_LoadCase3_30.inp
p28
sVjsonFileName
p29
VabaqusSubmit.json
p30
sVclientMachine
p31
Vbonobo.qig.teamindustrialservices.com
p32
sVclientName
p33
Vcdavis
p34
sVclientWorkingDir
p35
V/home/cdavis/Siji
p36
ssVadvanced
p37
(dp38
VsendEmailTo
p39
Vs.abraham@questintegrity.com
p40
ssa.